target datalayout = "e-m:e-p270:32:32-p271:32:32-p272:64:64-i64:64-i128:128-f80:128-n8:16:32:64-S128"
target triple = "x86_64-pc-linux-gnu"

%struct.Proto = type { ptr, i8, i8, i8, i8, i8, i32, i32, i32, i32, i32, i32, i32, i32, i32, ptr, ptr, ptr, ptr, ptr, ptr, ptr, ptr, ptr }
%struct.AbsLineInfo = type { i32, i32 }
%struct.lua_State = type { ptr, i8, i8, i8, i8, i16, %union.StkIdRel, ptr, ptr, %union.StkIdRel, %union.StkIdRel, ptr, %union.StkIdRel, ptr, ptr, ptr, %struct.CallInfo, ptr, i64, i32, i32, i32, i32, i32, %struct.anon.2 }
%union.StkIdRel = type { ptr }
%struct.CallInfo = type { %union.StkIdRel, %union.StkIdRel, ptr, ptr, %union.anon, %union.anon.1, i32 }
%union.anon = type { %struct.anon.0 }
%struct.anon.0 = type { ptr, i64, i64 }
%union.anon.1 = type { i32 }
%struct.anon.2 = type { i32, i32 }
%struct.anon = type { ptr, i32, i32 }
%union.StackValue = type { %struct.TValue }
%struct.TValue = type { %union.Value, i8 }
%union.Value = type { ptr }
%struct.LClosure = type { ptr, i8, i8, i8, ptr, ptr, [1 x ptr] }
%struct.__va_list_tag = type { i32, i32, ptr, ptr }
%struct.global_State = type { ptr, ptr, i64, i64, i64, i64, %struct.stringtable, %struct.TValue, %struct.TValue, i32, [6 x i8], i8, i8, i8, i8, i8, i8, ptr, ptr, ptr, ptr, ptr, ptr, ptr, ptr, ptr, ptr, ptr, ptr, ptr, ptr, ptr, ptr, ptr, ptr, ptr, ptr, ptr, [25 x ptr], [9 x ptr], [53 x [2 x ptr]], ptr, ptr }
%struct.stringtable = type { ptr, i32, i32 }
%struct.TString = type { ptr, i8, i8, i8, i8, i32, %union.anon.4, ptr, ptr, ptr }
%union.anon.4 = type { i64 }

@.str.8 = private unnamed_addr constant [10 x i8] c"%s:%d: %s\00", align 1

; Function Attrs: nounwind uwtable
define internal i32 @getbaseline(ptr noundef %0, i32 noundef %1, ptr noundef %2) #0 {
  %4 = alloca i32, align 4
  %5 = alloca ptr, align 8
  %6 = alloca i32, align 4
  %7 = alloca ptr, align 8
  %8 = alloca i32, align 4
  store ptr %0, ptr %5, align 8, !tbaa !4
  store i32 %1, ptr %6, align 4, !tbaa !9
  store ptr %2, ptr %7, align 8, !tbaa !23
  %9 = load ptr, ptr %5, align 8, !tbaa !4
  %10 = getelementptr inbounds nuw %struct.Proto, ptr %9, i32 0, i32 12
  %11 = load i32, ptr %10, align 8, !tbaa !24
  %12 = icmp eq i32 %11, 0
  br i1 %12, label %22, label %13

13:                                               ; preds = %3
  %14 = load i32, ptr %6, align 4, !tbaa !9
  %15 = load ptr, ptr %5, align 8, !tbaa !4
  %16 = getelementptr inbounds nuw %struct.Proto, ptr %15, i32 0, i32 20
  %17 = load ptr, ptr %16, align 8, !tbaa !25
  %18 = getelementptr inbounds %struct.AbsLineInfo, ptr %17, i64 0
  %19 = getelementptr inbounds nuw %struct.AbsLineInfo, ptr %18, i32 0, i32 0
  %20 = load i32, ptr %19, align 4, !tbaa !26
  %21 = icmp slt i32 %14, %20
  br i1 %21, label %22, label %27

22:                                               ; preds = %13, %3
  %23 = load ptr, ptr %7, align 8, !tbaa !23
  store i32 -1, ptr %23, align 4, !tbaa !9
  %24 = load ptr, ptr %5, align 8, !tbaa !4
  %25 = getelementptr inbounds nuw %struct.Proto, ptr %24, i32 0, i32 13
  %26 = load i32, ptr %25, align 4, !tbaa !28
  store i32 %26, ptr %4, align 4
  br label %73

27:                                               ; preds = %13
  call void @llvm.lifetime.start.p0(i64 4, ptr %8) #8
  %28 = load i32, ptr %6, align 4, !tbaa !9
  %29 = sdiv i32 %28, 128
  %30 = sub nsw i32 %29, 1
  store i32 %30, ptr %8, align 4, !tbaa !9
  br label %31

31:                                               ; preds = %52, %27
  %32 = load i32, ptr %8, align 4, !tbaa !9
  %33 = add nsw i32 %32, 1
  %34 = load ptr, ptr %5, align 8, !tbaa !4
  %35 = getelementptr inbounds nuw %struct.Proto, ptr %34, i32 0, i32 12
  %36 = load i32, ptr %35, align 8, !tbaa !24
  %37 = icmp slt i32 %33, %36
  br i1 %37, label %38, label %50

38:                                               ; preds = %31
  %39 = load i32, ptr %6, align 4, !tbaa !9
  %40 = load ptr, ptr %5, align 8, !tbaa !4
  %41 = getelementptr inbounds nuw %struct.Proto, ptr %40, i32 0, i32 20
  %42 = load ptr, ptr %41, align 8, !tbaa !25
  %43 = load i32, ptr %8, align 4, !tbaa !9
  %44 = add nsw i32 %43, 1
  %45 = sext i32 %44 to i64
  %46 = getelementptr inbounds %struct.AbsLineInfo, ptr %42, i64 %45
  %47 = getelementptr inbounds nuw %struct.AbsLineInfo, ptr %46, i32 0, i32 0
  %48 = load i32, ptr %47, align 4, !tbaa !26
  %49 = icmp sge i32 %39, %48
  br label %50

50:                                               ; preds = %38, %31
  %51 = phi i1 [ false, %31 ], [ %49, %38 ]
  br i1 %51, label %52, label %55

52:                                               ; preds = %50
  %53 = load i32, ptr %8, align 4, !tbaa !9
  %54 = add nsw i32 %53, 1
  store i32 %54, ptr %8, align 4, !tbaa !9
  br label %31

55:                                               ; preds = %50
  %56 = load ptr, ptr %5, align 8, !tbaa !4
  %57 = getelementptr inbounds nuw %struct.Proto, ptr %56, i32 0, i32 20
  %58 = load ptr, ptr %57, align 8, !tbaa !25
  %59 = load i32, ptr %8, align 4, !tbaa !9
  %60 = sext i32 %59 to i64
  %61 = getelementptr inbounds %struct.AbsLineInfo, ptr %58, i64 %60
  %62 = getelementptr inbounds nuw %struct.AbsLineInfo, ptr %61, i32 0, i32 0
  %63 = load i32, ptr %62, align 4, !tbaa !26
  %64 = load ptr, ptr %7, align 8, !tbaa !23
  store i32 %63, ptr %64, align 4, !tbaa !9
  %65 = load ptr, ptr %5, align 8, !tbaa !4
  %66 = getelementptr inbounds nuw %struct.Proto, ptr %65, i32 0, i32 20
  %67 = load ptr, ptr %66, align 8, !tbaa !25
  %68 = load i32, ptr %8, align 4, !tbaa !9
  %69 = sext i32 %68 to i64
  %70 = getelementptr inbounds %struct.AbsLineInfo, ptr %67, i64 %69
  %71 = getelementptr inbounds nuw %struct.AbsLineInfo, ptr %70, i32 0, i32 1
  %72 = load i32, ptr %71, align 4, !tbaa !29
  store i32 %72, ptr %4, align 4
  call void @llvm.lifetime.end.p0(i64 4, ptr %8) #8
  br label %73

73:                                               ; preds = %55, %22
  %74 = load i32, ptr %4, align 4
  ret i32 %74
}

; Function Attrs: nounwind uwtable
define hidden i32 @luaG_getfuncline(ptr noundef %0, i32 noundef %1) #0 {
  %3 = alloca i32, align 4
  %4 = alloca ptr, align 8
  %5 = alloca i32, align 4
  %6 = alloca i32, align 4
  %7 = alloca i32, align 4
  store ptr %0, ptr %4, align 8, !tbaa !4
  store i32 %1, ptr %5, align 4, !tbaa !9
  %8 = load ptr, ptr %4, align 8, !tbaa !4
  %9 = getelementptr inbounds nuw %struct.Proto, ptr %8, i32 0, i32 19
  %10 = load ptr, ptr %9, align 8, !tbaa !11
  %11 = icmp eq ptr %10, null
  br i1 %11, label %12, label %13

12:                                               ; preds = %2
  store i32 -1, ptr %3, align 4
  br label %35

13:                                               ; preds = %2
  call void @llvm.lifetime.start.p0(i64 4, ptr %6) #8
  call void @llvm.lifetime.start.p0(i64 4, ptr %7) #8
  %14 = load ptr, ptr %4, align 8, !tbaa !4
  %15 = load i32, ptr %5, align 4, !tbaa !9
  %16 = call i32 @getbaseline(ptr noundef %14, i32 noundef %15, ptr noundef %6)
  store i32 %16, ptr %7, align 4, !tbaa !9
  br label %17

17:                                               ; preds = %22, %13
  %18 = load i32, ptr %6, align 4, !tbaa !9
  %19 = add nsw i32 %18, 1
  store i32 %19, ptr %6, align 4, !tbaa !9
  %20 = load i32, ptr %5, align 4, !tbaa !9
  %21 = icmp slt i32 %18, %20
  br i1 %21, label %22, label %33

22:                                               ; preds = %17
  %23 = load ptr, ptr %4, align 8, !tbaa !4
  %24 = getelementptr inbounds nuw %struct.Proto, ptr %23, i32 0, i32 19
  %25 = load ptr, ptr %24, align 8, !tbaa !11
  %26 = load i32, ptr %6, align 4, !tbaa !9
  %27 = sext i32 %26 to i64
  %28 = getelementptr inbounds i8, ptr %25, i64 %27
  %29 = load i8, ptr %28, align 1, !tbaa !22
  %30 = sext i8 %29 to i32
  %31 = load i32, ptr %7, align 4, !tbaa !9
  %32 = add nsw i32 %31, %30
  store i32 %32, ptr %7, align 4, !tbaa !9
  br label %17

33:                                               ; preds = %17
  %34 = load i32, ptr %7, align 4, !tbaa !9
  store i32 %34, ptr %3, align 4
  call void @llvm.lifetime.end.p0(i64 4, ptr %7) #8
  call void @llvm.lifetime.end.p0(i64 4, ptr %6) #8
  br label %35

35:                                               ; preds = %33, %12
  %36 = load i32, ptr %3, align 4
  ret i32 %36
}

; Function Attrs: nounwind uwtable
define internal i32 @currentpc(ptr noundef %0) #0 {
  %2 = alloca ptr, align 8
  store ptr %0, ptr %2, align 8, !tbaa !47
  %3 = load ptr, ptr %2, align 8, !tbaa !47
  %4 = getelementptr inbounds nuw %struct.CallInfo, ptr %3, i32 0, i32 4
  %5 = getelementptr inbounds nuw %struct.anon, ptr %4, i32 0, i32 0
  %6 = load ptr, ptr %5, align 8, !tbaa !22
  %7 = load ptr, ptr %2, align 8, !tbaa !47
  %8 = getelementptr inbounds nuw %struct.CallInfo, ptr %7, i32 0, i32 0
  %9 = load ptr, ptr %8, align 8, !tbaa !22
  %10 = getelementptr inbounds nuw %struct.TValue, ptr %9, i32 0, i32 0
  %11 = load ptr, ptr %10, align 8, !tbaa !22
  %12 = getelementptr inbounds nuw %struct.LClosure, ptr %11, i32 0, i32 5
  %13 = load ptr, ptr %12, align 8, !tbaa !59
  %14 = getelementptr inbounds nuw %struct.Proto, ptr %13, i32 0, i32 16
  %15 = load ptr, ptr %14, align 8, !tbaa !63
  %16 = ptrtoint ptr %6 to i64
  %17 = ptrtoint ptr %15 to i64
  %18 = sub i64 %16, %17
  %19 = sdiv exact i64 %18, 4
  %20 = trunc i64 %19 to i32
  %21 = sub nsw i32 %20, 1
  ret i32 %21
}

; Function Attrs: nounwind uwtable
define hidden ptr @luaG_addinfo(ptr noundef %0, ptr noundef %1, ptr noundef %2, i32 noundef %3) #0 {
  %5 = alloca ptr, align 8
  %6 = alloca ptr, align 8
  %7 = alloca ptr, align 8
  %8 = alloca i32, align 4
  %9 = alloca [60 x i8], align 16
  %10 = alloca i64, align 8
  %11 = alloca ptr, align 8
  store ptr %0, ptr %5, align 8, !tbaa !30
  store ptr %1, ptr %6, align 8, !tbaa !58
  store ptr %2, ptr %7, align 8, !tbaa !95
  store i32 %3, ptr %8, align 4, !tbaa !9
  call void @llvm.lifetime.start.p0(i64 60, ptr %9) #8
  %12 = load ptr, ptr %7, align 8, !tbaa !95
  %13 = icmp ne ptr %12, null
  br i1 %13, label %14, label %39

14:                                               ; preds = %4
  call void @llvm.lifetime.start.p0(i64 8, ptr %10) #8
  call void @llvm.lifetime.start.p0(i64 8, ptr %11) #8
  %15 = load ptr, ptr %7, align 8, !tbaa !95
  %16 = getelementptr inbounds nuw %struct.TString, ptr %15, i32 0, i32 4
  %17 = load i8, ptr %16, align 1, !tbaa !96
  %18 = sext i8 %17 to i32
  %19 = icmp sge i32 %18, 0
  br i1 %19, label %20, label %27

20:                                               ; preds = %14
  %21 = load ptr, ptr %7, align 8, !tbaa !95
  %22 = getelementptr inbounds nuw %struct.TString, ptr %21, i32 0, i32 4
  %23 = load i8, ptr %22, align 1, !tbaa !96
  %24 = sext i8 %23 to i64
  store i64 %24, ptr %10, align 8, !tbaa !98
  %25 = load ptr, ptr %7, align 8, !tbaa !95
  %26 = getelementptr inbounds nuw %struct.TString, ptr %25, i32 0, i32 7
  br label %34

27:                                               ; preds = %14
  %28 = load ptr, ptr %7, align 8, !tbaa !95
  %29 = getelementptr inbounds nuw %struct.TString, ptr %28, i32 0, i32 6
  %30 = load i64, ptr %29, align 8, !tbaa !22
  store i64 %30, ptr %10, align 8, !tbaa !98
  %31 = load ptr, ptr %7, align 8, !tbaa !95
  %32 = getelementptr inbounds nuw %struct.TString, ptr %31, i32 0, i32 7
  %33 = load ptr, ptr %32, align 8, !tbaa !99
  br label %34

34:                                               ; preds = %27, %20
  %35 = phi ptr [ %26, %20 ], [ %33, %27 ]
  store ptr %35, ptr %11, align 8, !tbaa !58
  %36 = getelementptr inbounds [60 x i8], ptr %9, i64 0, i64 0
  %37 = load ptr, ptr %11, align 8, !tbaa !58
  %38 = load i64, ptr %10, align 8, !tbaa !98
  call void @luaO_chunkid(ptr noundef %36, ptr noundef %37, i64 noundef %38)
  call void @llvm.lifetime.end.p0(i64 8, ptr %11) #8
  call void @llvm.lifetime.end.p0(i64 8, ptr %10) #8
  br label %42

39:                                               ; preds = %4
  %40 = getelementptr inbounds [60 x i8], ptr %9, i64 0, i64 0
  store i8 63, ptr %40, align 16, !tbaa !22
  %41 = getelementptr inbounds [60 x i8], ptr %9, i64 0, i64 1
  store i8 0, ptr %41, align 1, !tbaa !22
  br label %42

42:                                               ; preds = %39, %34
  %43 = load ptr, ptr %5, align 8, !tbaa !30
  %44 = getelementptr inbounds [60 x i8], ptr %9, i64 0, i64 0
  %45 = load i32, ptr %8, align 4, !tbaa !9
  %46 = load ptr, ptr %6, align 8, !tbaa !58
  %47 = call ptr (ptr, ptr, ...) @luaO_pushfstring(ptr noundef %43, ptr noundef @.str.8, ptr noundef %44, i32 noundef %45, ptr noundef %46)
  call void @llvm.lifetime.end.p0(i64 60, ptr %9) #8
  ret ptr %47
}

; Function Attrs: nounwind uwtable
define internal i32 @getcurrentline(ptr noundef %0) #0 {
  %2 = alloca ptr, align 8
  store ptr %0, ptr %2, align 8, !tbaa !47
  %3 = load ptr, ptr %2, align 8, !tbaa !47
  %4 = getelementptr inbounds nuw %struct.CallInfo, ptr %3, i32 0, i32 0
  %5 = load ptr, ptr %4, align 8, !tbaa !22
  %6 = getelementptr inbounds nuw %struct.TValue, ptr %5, i32 0, i32 0
  %7 = load ptr, ptr %6, align 8, !tbaa !22
  %8 = getelementptr inbounds nuw %struct.LClosure, ptr %7, i32 0, i32 5
  %9 = load ptr, ptr %8, align 8, !tbaa !59
  %10 = load ptr, ptr %2, align 8, !tbaa !47
  %11 = call i32 @currentpc(ptr noundef %10)
  %12 = call i32 @luaG_getfuncline(ptr noundef %9, i32 noundef %11)
  ret i32 %12
}

; Function Attrs: noreturn nounwind uwtable
define hidden void @luaG_runerror(ptr noundef %0, ptr noundef %1, ...) #5 {
  %3 = alloca ptr, align 8
  %4 = alloca ptr, align 8
  %5 = alloca ptr, align 8
  %6 = alloca ptr, align 8
  %7 = alloca [1 x %struct.__va_list_tag], align 16
  %8 = alloca ptr, align 8
  %9 = alloca ptr, align 8
  store ptr %0, ptr %3, align 8, !tbaa !30
  store ptr %1, ptr %4, align 8, !tbaa !58
  call void @llvm.lifetime.start.p0(i64 8, ptr %5) #8
  %10 = load ptr, ptr %3, align 8, !tbaa !30
  %11 = getelementptr inbounds nuw %struct.lua_State, ptr %10, i32 0, i32 8
  %12 = load ptr, ptr %11, align 8, !tbaa !46
  store ptr %12, ptr %5, align 8, !tbaa !47
  call void @llvm.lifetime.start.p0(i64 8, ptr %6) #8
  call void @llvm.lifetime.start.p0(i64 24, ptr %7) #8
  %13 = load ptr, ptr %3, align 8, !tbaa !30
  %14 = getelementptr inbounds nuw %struct.lua_State, ptr %13, i32 0, i32 7
  %15 = load ptr, ptr %14, align 8, !tbaa !88
  %16 = getelementptr inbounds nuw %struct.global_State, ptr %15, i32 0, i32 3
  %17 = load i64, ptr %16, align 8, !tbaa !89
  %18 = icmp sle i64 %17, 0
  br i1 %18, label %19, label %21

19:                                               ; preds = %2
  %20 = load ptr, ptr %3, align 8, !tbaa !30
  call void @luaC_step(ptr noundef %20)
  br label %21

21:                                               ; preds = %19, %2
  %22 = getelementptr inbounds [1 x %struct.__va_list_tag], ptr %7, i64 0, i64 0
  call void @llvm.va_start.p0(ptr %22)
  %23 = load ptr, ptr %3, align 8, !tbaa !30
  %24 = load ptr, ptr %4, align 8, !tbaa !58
  %25 = getelementptr inbounds [1 x %struct.__va_list_tag], ptr %7, i64 0, i64 0
  %26 = call ptr @luaO_pushvfstring(ptr noundef %23, ptr noundef %24, ptr noundef %25)
  store ptr %26, ptr %6, align 8, !tbaa !58
  %27 = getelementptr inbounds [1 x %struct.__va_list_tag], ptr %7, i64 0, i64 0
  call void @llvm.va_end.p0(ptr %27)
  %28 = load ptr, ptr %6, align 8, !tbaa !58
  %29 = icmp ne ptr %28, null
  br i1 %29, label %30, label %72

30:                                               ; preds = %21
  %31 = load ptr, ptr %5, align 8, !tbaa !47
  %32 = getelementptr inbounds nuw %struct.CallInfo, ptr %31, i32 0, i32 6
  %33 = load i32, ptr %32, align 4, !tbaa !48
  %34 = and i32 %33, 32768
  %35 = icmp ne i32 %34, 0
  br i1 %35, label %72, label %36

36:                                               ; preds = %30
  %37 = load ptr, ptr %3, align 8, !tbaa !30
  %38 = load ptr, ptr %6, align 8, !tbaa !58
  %39 = load ptr, ptr %5, align 8, !tbaa !47
  %40 = getelementptr inbounds nuw %struct.CallInfo, ptr %39, i32 0, i32 0
  %41 = load ptr, ptr %40, align 8, !tbaa !22
  %42 = getelementptr inbounds nuw %struct.TValue, ptr %41, i32 0, i32 0
  %43 = load ptr, ptr %42, align 8, !tbaa !22
  %44 = getelementptr inbounds nuw %struct.LClosure, ptr %43, i32 0, i32 5
  %45 = load ptr, ptr %44, align 8, !tbaa !59
  %46 = getelementptr inbounds nuw %struct.Proto, ptr %45, i32 0, i32 22
  %47 = load ptr, ptr %46, align 8, !tbaa !94
  %48 = load ptr, ptr %5, align 8, !tbaa !47
  %49 = call i32 @getcurrentline(ptr noundef %48)
  %50 = call ptr @luaG_addinfo(ptr noundef %37, ptr noundef %38, ptr noundef %47, i32 noundef %49)
  call void @llvm.lifetime.start.p0(i64 8, ptr %8) #8
  %51 = load ptr, ptr %3, align 8, !tbaa !30
  %52 = getelementptr inbounds nuw %struct.lua_State, ptr %51, i32 0, i32 6
  %53 = load ptr, ptr %52, align 8, !tbaa !22
  %54 = getelementptr inbounds %union.StackValue, ptr %53, i64 -2
  store ptr %54, ptr %8, align 8, !tbaa !64
  call void @llvm.lifetime.start.p0(i64 8, ptr %9) #8
  %55 = load ptr, ptr %3, align 8, !tbaa !30
  %56 = getelementptr inbounds nuw %struct.lua_State, ptr %55, i32 0, i32 6
  %57 = load ptr, ptr %56, align 8, !tbaa !22
  %58 = getelementptr inbounds %union.StackValue, ptr %57, i64 -1
  store ptr %58, ptr %9, align 8, !tbaa !64
  %59 = load ptr, ptr %8, align 8, !tbaa !64
  %60 = getelementptr inbounds nuw %struct.TValue, ptr %59, i32 0, i32 0
  %61 = load ptr, ptr %9, align 8, !tbaa !64
  %62 = getelementptr inbounds nuw %struct.TValue, ptr %61, i32 0, i32 0
  call void @llvm.memcpy.p0.p0.i64(ptr align 8 %60, ptr align 8 %62, i64 8, i1 false), !tbaa.struct !65
  %63 = load ptr, ptr %9, align 8, !tbaa !64
  %64 = getelementptr inbounds nuw %struct.TValue, ptr %63, i32 0, i32 1
  %65 = load i8, ptr %64, align 8, !tbaa !66
  %66 = load ptr, ptr %8, align 8, !tbaa !64
  %67 = getelementptr inbounds nuw %struct.TValue, ptr %66, i32 0, i32 1
  store i8 %65, ptr %67, align 8, !tbaa !66
  call void @llvm.lifetime.end.p0(i64 8, ptr %9) #8
  call void @llvm.lifetime.end.p0(i64 8, ptr %8) #8
  %68 = load ptr, ptr %3, align 8, !tbaa !30
  %69 = getelementptr inbounds nuw %struct.lua_State, ptr %68, i32 0, i32 6
  %70 = load ptr, ptr %69, align 8, !tbaa !22
  %71 = getelementptr inbounds %union.StackValue, ptr %70, i32 -1
  store ptr %71, ptr %69, align 8, !tbaa !22
  br label %72

72:                                               ; preds = %36, %30, %21
  %73 = load ptr, ptr %3, align 8, !tbaa !30
  call void @luaG_errormsg(ptr noundef %73) #10
  unreachable
}