; Function Attrs: noreturn nounwind uwtable
define hidden void @luaG_runerror(ptr noundef %0, ptr noundef %1, ...) local_unnamed_addr #9 {
  %3 = alloca [60 x i8], align 16
  %4 = alloca [1 x %struct.__va_list_tag], align 16
  %5 = getelementptr inbounds nuw i8, ptr %0, i64 32
  %6 = load ptr, ptr %5, align 8, !tbaa !39
  call void @llvm.lifetime.start.p0(i64 24, ptr nonnull %4) #13
  %7 = getelementptr inbounds nuw i8, ptr %0, i64 24
  %8 = load ptr, ptr %7, align 8, !tbaa !86
  %9 = getelementptr inbounds nuw i8, ptr %8, i64 24
  %10 = load i64, ptr %9, align 8, !tbaa !88
  %11 = icmp slt i64 %10, 1
  br i1 %11, label %12, label %13

12:                                               ; preds = %2
  tail call void @luaC_step(ptr noundef nonnull %0) #13
  br label %13

13:                                               ; preds = %12, %2
  call void @llvm.va_start.p0(ptr nonnull %4)
  %14 = call ptr @luaO_pushvfstring(ptr noundef nonnull %0, ptr noundef %1, ptr noundef nonnull %4) #13
  call void @llvm.va_end.p0(ptr nonnull %4)
  %.not = icmp eq ptr %14, null
  br i1 %.not, label %91, label %15

15:                                               ; preds = %13
  %16 = getelementptr inbounds nuw i8, ptr %6, i64 60
  %17 = load i32, ptr %16, align 4, !tbaa !40
  %18 = and i32 %17, 32768
  %.not19 = icmp eq i32 %18, 0
  br i1 %.not19, label %19, label %91

19:                                               ; preds = %15
  %20 = load ptr, ptr %6, align 8, !tbaa !24
  %21 = load ptr, ptr %20, align 8, !tbaa !24
  %22 = getelementptr inbounds nuw i8, ptr %21, i64 24
  %23 = load ptr, ptr %22, align 8, !tbaa !45
  %24 = getelementptr inbounds nuw i8, ptr %23, i64 112
  %25 = load ptr, ptr %24, align 8, !tbaa !59
  %26 = getelementptr i8, ptr %6, i64 32
  %.val20 = load ptr, ptr %26, align 8, !tbaa !24
  %27 = getelementptr i8, ptr %23, i64 64
  %.val.val.val.val.i = load ptr, ptr %27, align 8, !tbaa !49
  %28 = ptrtoint ptr %.val20 to i64
  %29 = ptrtoint ptr %.val.val.val.val.i to i64
  %30 = sub i64 %28, %29
  %31 = lshr exact i64 %30, 2
  %32 = trunc i64 %31 to i32
  %33 = add nsw i32 %32, -1
  %34 = getelementptr inbounds nuw i8, ptr %23, i64 88
  %35 = load ptr, ptr %34, align 8, !tbaa !4
  %36 = icmp eq ptr %35, null
  br i1 %36, label %getcurrentline.exit, label %37

37:                                               ; preds = %19
  %38 = getelementptr inbounds nuw i8, ptr %23, i64 40
  %39 = load i32, ptr %38, align 8, !tbaa !19
  %40 = icmp eq i32 %39, 0
  br i1 %40, label %45, label %41

41:                                               ; preds = %37
  %42 = getelementptr inbounds nuw i8, ptr %23, i64 96
  %43 = load ptr, ptr %42, align 8, !tbaa !20
  %44 = load i32, ptr %43, align 4, !tbaa !21
  %.not.i = icmp slt i32 %44, %32
  br i1 %.not.i, label %47, label %45

45:                                               ; preds = %41, %37
  %46 = getelementptr inbounds nuw i8, ptr %23, i64 44
  br label %getbaseline.exit.i.i

47:                                               ; preds = %41
  %48 = sdiv i32 %33, 128
  %narrow.i.i.i = add nsw i32 %48, -1
  %49 = sext i32 %narrow.i.i.i to i64
  %smax.i.i.i = call i32 @llvm.smax.i32(i32 %39, i32 %48)
  %50 = add nsw i32 %smax.i.i.i, -1
  %wide.trip.count.i.i.i = sext i32 %50 to i64
  br label %51

51:                                               ; preds = %52, %47
  %indvars.iv.i.i.i = phi i64 [ %indvars.iv.next.i.i.i, %52 ], [ %49, %47 ]
  %exitcond.not.i.i.i = icmp eq i64 %indvars.iv.i.i.i, %wide.trip.count.i.i.i
  br i1 %exitcond.not.i.i.i, label %.critedge.i.i.i, label %52

52:                                               ; preds = %51
  %indvars.iv.next.i.i.i = add nsw i64 %indvars.iv.i.i.i, 1
  %53 = getelementptr inbounds %struct.AbsLineInfo, ptr %43, i64 %indvars.iv.next.i.i.i
  %54 = load i32, ptr %53, align 4, !tbaa !21
  %.not.i.i.not.i = icmp slt i32 %54, %32
  br i1 %.not.i.i.not.i, label %51, label %..critedge_crit_edge.i.i.i

..critedge_crit_edge.i.i.i:                       ; preds = %52
  %sext.i.i.i = shl i64 %indvars.iv.i.i.i, 32
  %.pre.i.i.i = ashr exact i64 %sext.i.i.i, 32
  br label %.critedge.i.i.i

.critedge.i.i.i:                                  ; preds = %51, %..critedge_crit_edge.i.i.i
  %.pre-phi.i.i.i = phi i64 [ %.pre.i.i.i, %..critedge_crit_edge.i.i.i ], [ %wide.trip.count.i.i.i, %51 ]
  %55 = getelementptr inbounds %struct.AbsLineInfo, ptr %43, i64 %.pre-phi.i.i.i
  %56 = load i32, ptr %55, align 4, !tbaa !21
  %57 = getelementptr inbounds %struct.AbsLineInfo, ptr %43, i64 %.pre-phi.i.i.i, i32 1
  br label %getbaseline.exit.i.i

getbaseline.exit.i.i:                             ; preds = %.critedge.i.i.i, %45
  %.1.i.i = phi i32 [ -1, %45 ], [ %56, %.critedge.i.i.i ]
  %.017.in.i.i.i = phi ptr [ %46, %45 ], [ %57, %.critedge.i.i.i ]
  %.017.i.i.i = load i32, ptr %.017.in.i.i.i, align 4, !tbaa !23
  %58 = icmp slt i32 %.1.i.i, %33
  br i1 %58, label %.lr.ph.preheader.i.i, label %getcurrentline.exit

.lr.ph.preheader.i.i:                             ; preds = %getbaseline.exit.i.i
  %59 = sext i32 %.1.i.i to i64
  %wide.trip.count.i.i = sext i32 %33 to i64
  br label %.lr.ph.i.i

.lr.ph.i.i:                                       ; preds = %.lr.ph.i.i, %.lr.ph.preheader.i.i
  %indvars.iv.i.i = phi i64 [ %59, %.lr.ph.preheader.i.i ], [ %indvars.iv.next.i.i, %.lr.ph.i.i ]
  %.011.i.i = phi i32 [ %.017.i.i.i, %.lr.ph.preheader.i.i ], [ %63, %.lr.ph.i.i ]
  %indvars.iv.next.i.i = add nsw i64 %indvars.iv.i.i, 1
  %60 = getelementptr inbounds i8, ptr %35, i64 %indvars.iv.next.i.i
  %61 = load i8, ptr %60, align 1, !tbaa !24
  %62 = sext i8 %61 to i32
  %63 = add nsw i32 %.011.i.i, %62
  %exitcond.not.i.i = icmp eq i64 %indvars.iv.next.i.i, %wide.trip.count.i.i
  br i1 %exitcond.not.i.i, label %getcurrentline.exit, label %.lr.ph.i.i

getcurrentline.exit:                              ; preds = %.lr.ph.i.i, %19, %getbaseline.exit.i.i
  %.07.i.i = phi i32 [ -1, %19 ], [ %.017.i.i.i, %getbaseline.exit.i.i ], [ %63, %.lr.ph.i.i ]
  call void @llvm.lifetime.start.p0(i64 60, ptr nonnull %3) #13
  %.not.i21 = icmp eq ptr %25, null
  br i1 %.not.i21, label %78, label %64

64:                                               ; preds = %getcurrentline.exit
  %65 = getelementptr inbounds nuw i8, ptr %25, i64 11
  %66 = load i8, ptr %65, align 1, !tbaa !60
  %67 = icmp sgt i8 %66, -1
  br i1 %67, label %68, label %71

68:                                               ; preds = %64
  %69 = zext nneg i8 %66 to i64
  %70 = getelementptr inbounds nuw i8, ptr %25, i64 24
  br label %76

71:                                               ; preds = %64
  %72 = getelementptr inbounds nuw i8, ptr %25, i64 16
  %73 = load i64, ptr %72, align 8, !tbaa !24
  %74 = getelementptr inbounds nuw i8, ptr %25, i64 24
  %75 = load ptr, ptr %74, align 8, !tbaa !62
  br label %76

76:                                               ; preds = %71, %68
  %.0.i = phi i64 [ %69, %68 ], [ %73, %71 ]
  %77 = phi ptr [ %70, %68 ], [ %75, %71 ]
  call void @luaO_chunkid(ptr noundef nonnull %3, ptr noundef %77, i64 noundef %.0.i) #13
  br label %luaG_addinfo.exit

78:                                               ; preds = %getcurrentline.exit
  store i8 63, ptr %3, align 16, !tbaa !24
  %79 = getelementptr inbounds nuw i8, ptr %3, i64 1
  store i8 0, ptr %79, align 1, !tbaa !24
  br label %luaG_addinfo.exit

luaG_addinfo.exit:                                ; preds = %76, %78
  %80 = call ptr (ptr, ptr, ...) @luaO_pushfstring(ptr noundef nonnull %0, ptr noundef nonnull @.str.8, ptr noundef nonnull %3, i32 noundef %.07.i.i, ptr noundef nonnull %14) #13
  call void @llvm.lifetime.end.p0(i64 60, ptr nonnull %3) #13
  %81 = getelementptr inbounds nuw i8, ptr %0, i64 16
  %82 = load ptr, ptr %81, align 8, !tbaa !24
  %83 = getelementptr inbounds i8, ptr %82, i64 -32
  %84 = getelementptr inbounds i8, ptr %82, i64 -16
  %85 = load i64, ptr %84, align 8, !tbaa !24
  store i64 %85, ptr %83, align 8, !tbaa !24
  %86 = getelementptr inbounds i8, ptr %82, i64 -8
  %87 = load i8, ptr %86, align 8, !tbaa !53
  %88 = getelementptr inbounds i8, ptr %82, i64 -24
  store i8 %87, ptr %88, align 8, !tbaa !53
  %89 = load ptr, ptr %81, align 8, !tbaa !24
  %90 = getelementptr inbounds i8, ptr %89, i64 -16
  store ptr %90, ptr %81, align 8, !tbaa !24
  br label %91

91:                                               ; preds = %luaG_addinfo.exit, %15, %13
  call void @luaG_errormsg(ptr noundef nonnull %0) #15
  unreachable
}